target datalayout = "e-m:e-p270:32:32-p271:32:32-p272:64:64-i64:64-i128:128-f80:128-n8:16:32:64-S128"
target triple = "x86_64-pc-linux-gnu"

%struct.RStruct = type { %struct.RBasic, %union.anon.12 }
%struct.RBasic = type { i64, i64 }
%union.anon.12 = type { %struct.anon.13 }
%struct.anon.13 = type { i64, ptr }

; Function Attrs: inlinehint nounwind sspstrong uwtable
define internal i64 @RSTRUCT_EMBED_LEN(i64 noundef %0) #1 {
  %2 = alloca i64, align 8
  %3 = alloca i64, align 8
  store i64 %0, ptr %2, align 8, !tbaa !7
  call void @llvm.lifetime.start.p0(i64 8, ptr %3) #26
  %4 = load i64, ptr %2, align 8, !tbaa !7
  %5 = call i64 @RB_FL_TEST_RAW(i64 noundef %4, i64 noundef 1040384) #28
  store i64 %5, ptr %3, align 8, !tbaa !7
  %6 = load i64, ptr %3, align 8, !tbaa !7
  %7 = ashr i64 %6, 13
  store i64 %7, ptr %3, align 8, !tbaa !7
  %8 = load i64, ptr %3, align 8, !tbaa !7
  call void @llvm.lifetime.end.p0(i64 8, ptr %3) #26
  ret i64 %8
}

; Function Attrs: inlinehint nounwind sspstrong willreturn memory(read) uwtable
define internal i64 @RB_FL_TEST_RAW(i64 noundef %0, i64 noundef %1) #6 {
  %3 = alloca i64, align 8
  %4 = alloca i64, align 8
  store i64 %0, ptr %3, align 8, !tbaa !7
  store i64 %1, ptr %4, align 8, !tbaa !7
  %5 = load i64, ptr %3, align 8, !tbaa !7
  %6 = inttoptr i64 %5 to ptr
  %7 = getelementptr inbounds nuw %struct.RBasic, ptr %6, i32 0, i32 0
  %8 = load i64, ptr %7, align 8, !tbaa !52
  %9 = load i64, ptr %4, align 8, !tbaa !7
  %10 = and i64 %8, %9
  ret i64 %10
}

; Function Attrs: inlinehint nounwind sspstrong uwtable
define internal i64 @internal_RSTRUCT_LEN(i64 noundef %0) #1 {
  %2 = alloca i64, align 8
  %3 = alloca i64, align 8
  store i64 %0, ptr %3, align 8, !tbaa !7
  %4 = load i64, ptr %3, align 8, !tbaa !7
  %5 = call i64 @RB_FL_TEST_RAW(i64 noundef %4, i64 noundef 1040384) #28
  %6 = icmp ne i64 %5, 0
  br i1 %6, label %7, label %10

7:                                                ; preds = %1
  %8 = load i64, ptr %3, align 8, !tbaa !7
  %9 = call i64 @RSTRUCT_EMBED_LEN(i64 noundef %8)
  store i64 %9, ptr %2, align 8
  br label %16

10:                                               ; preds = %1
  %11 = load i64, ptr %3, align 8, !tbaa !7
  %12 = inttoptr i64 %11 to ptr
  %13 = getelementptr inbounds nuw %struct.RStruct, ptr %12, i32 0, i32 1
  %14 = getelementptr inbounds nuw %struct.anon.13, ptr %13, i32 0, i32 0
  %15 = load i64, ptr %14, align 8, !tbaa !13
  store i64 %15, ptr %2, align 8
  br label %16

16:                                               ; preds = %10, %7
  %17 = load i64, ptr %2, align 8
  ret i64 %17
}

; Function Attrs: nounwind sspstrong uwtable
define internal i64 @rb_struct_values_at(i32 noundef %0, ptr noundef %1, i64 noundef %2) #0 {
  %4 = alloca i32, align 4
  %5 = alloca ptr, align 8
  %6 = alloca i64, align 8
  store i32 %0, ptr %4, align 4, !tbaa !11
  store ptr %1, ptr %5, align 8, !tbaa !28
  store i64 %2, ptr %6, align 8, !tbaa !7
  %7 = load i64, ptr %6, align 8, !tbaa !7
  %8 = load i64, ptr %6, align 8, !tbaa !7
  %9 = call i64 @internal_RSTRUCT_LEN(i64 noundef %8)
  %10 = load i32, ptr %4, align 4, !tbaa !11
  %11 = load ptr, ptr %5, align 8, !tbaa !28
  %12 = call i64 @rb_get_values_at(i64 noundef %7, i64 noundef %9, i32 noundef %10, ptr noundef %11, ptr noundef @struct_entry)
  ret i64 %12
}