; Function Attrs: nounwind sspstrong uwtable
define internal i64 @rb_struct_values_at(i32 noundef %0, ptr noundef %1, i64 noundef %2) #0 {
  %4 = inttoptr i64 %2 to ptr
  %5 = load i64, ptr %4, align 8, !tbaa !11
  %6 = and i64 %5, 1040384
  %.not.i = icmp eq i64 %6, 0
  br i1 %.not.i, label %10, label %7

7:                                                ; preds = %3
  %8 = lshr i64 %5, 13
  %9 = and i64 %8, 127
  br label %internal_RSTRUCT_LEN.exit

10:                                               ; preds = %3
  %11 = getelementptr inbounds nuw i8, ptr %4, i64 16
  %12 = load i64, ptr %11, align 8, !tbaa !13
  br label %internal_RSTRUCT_LEN.exit

internal_RSTRUCT_LEN.exit:                        ; preds = %7, %10
  %.0.i = phi i64 [ %9, %7 ], [ %12, %10 ]
  %13 = tail call i64 @rb_get_values_at(i64 noundef %2, i64 noundef %.0.i, i32 noundef %0, ptr noundef %1, ptr noundef nonnull @struct_entry) #19
  ret i64 %13
}